target datalayout = "e-m:e-p270:32:32-p271:32:32-p272:64:64-i64:64-i128:128-f80:128-n8:16:32:64-S128"
target triple = "x86_64-unknown-linux-gnu"

%"class.net::QuicAlarm" = type { ptr, %"class.net::QuicArenaScopedPtr", %"class.net::QuicTime" }
%"class.net::QuicArenaScopedPtr" = type { ptr }
%"class.net::QuicTime" = type { i64 }
%"class.net::QuicTime::Delta" = type { %"class.base::TimeDelta", i64 }
%"class.base::TimeDelta" = type { i64 }

; Function Attrs: mustprogress nounwind uwtable
define linkonce_odr dso_local void @_ZN4base9TimeDeltaC2Ev(ptr noundef nonnull align 8 dereferenceable(8) %this) unnamed_addr #1 comdat align 2 {
entry:
  %this.addr = alloca ptr, align 8
  store ptr %this, ptr %this.addr, align 8
  %this1 = load ptr, ptr %this.addr, align 8
  %delta_ = getelementptr inbounds %"class.base::TimeDelta", ptr %this1, i32 0, i32 0
  store i64 0, ptr %delta_, align 8
  ret void
}

; Function Attrs: mustprogress nounwind uwtable
define linkonce_odr dso_local void @_ZN3net8QuicTimeC2El(ptr noundef nonnull align 8 dereferenceable(8) %this, i64 noundef %time) unnamed_addr #1 comdat align 2 {
entry:
  %this.addr = alloca ptr, align 8
  %time.addr = alloca i64, align 8
  store ptr %this, ptr %this.addr, align 8
  store i64 %time, ptr %time.addr, align 8
  %this1 = load ptr, ptr %this.addr, align 8
  %time_ = getelementptr inbounds %"class.net::QuicTime", ptr %this1, i32 0, i32 0
  %0 = load i64, ptr %time.addr, align 8
  store i64 %0, ptr %time_, align 8
  ret void
}

; Function Attrs: mustprogress uwtable
define linkonce_odr dso_local void @_ZN3net8QuicTime5DeltaC2El(ptr noundef nonnull align 8 dereferenceable(16) %this, i64 noundef %time_offset) unnamed_addr #0 comdat align 2 {
entry:
  %this.addr = alloca ptr, align 8
  %time_offset.addr = alloca i64, align 8
  store ptr %this, ptr %this.addr, align 8
  store i64 %time_offset, ptr %time_offset.addr, align 8
  %this1 = load ptr, ptr %this.addr, align 8
  %delta_ = getelementptr inbounds %"class.net::QuicTime::Delta", ptr %this1, i32 0, i32 0
  call void @_ZN4base9TimeDeltaC2Ev(ptr noundef nonnull align 8 dereferenceable(8) %delta_)
  %time_offset_ = getelementptr inbounds %"class.net::QuicTime::Delta", ptr %this1, i32 0, i32 1
  %0 = load i64, ptr %time_offset.addr, align 8
  store i64 %0, ptr %time_offset_, align 8
  ret void
}

; Function Attrs: mustprogress uwtable
define linkonce_odr dso_local i64 @_ZN3net8QuicTime4ZeroEv() #0 comdat align 2 {
entry:
  %retval = alloca %"class.net::QuicTime", align 8
  call void @_ZN3net8QuicTimeC2El(ptr noundef nonnull align 8 dereferenceable(8) %retval, i64 noundef 0)
  %coerce.dive = getelementptr inbounds %"class.net::QuicTime", ptr %retval, i32 0, i32 0
  %0 = load i64, ptr %coerce.dive, align 8
  ret i64 %0
}

; Function Attrs: mustprogress uwtable
define dso_local noundef zeroext i1 @_ZNK3net9QuicAlarm5IsSetEv(ptr noundef nonnull align 8 dereferenceable(24) %this) #0 align 2 {
entry:
  %this.addr = alloca ptr, align 8
  store ptr %this, ptr %this.addr, align 8
  %this1 = load ptr, ptr %this.addr, align 8
  %deadline_ = getelementptr inbounds %"class.net::QuicAlarm", ptr %this1, i32 0, i32 2
  %call = call noundef zeroext i1 @_ZNK3net8QuicTime13IsInitializedEv(ptr noundef nonnull align 8 dereferenceable(8) %deadline_)
  ret i1 %call
}

; Function Attrs: mustprogress nounwind uwtable
define linkonce_odr dso_local noundef i64 @_ZSt3absl(i64 noundef %__i) #1 comdat {
entry:
  %__i.addr = alloca i64, align 8
  store i64 %__i, ptr %__i.addr, align 8
  %0 = load i64, ptr %__i.addr, align 8
  %1 = call i64 @llvm.abs.i64(i64 %0, i1 true)
  ret i64 %1
}

; Function Attrs: mustprogress nounwind uwtable
define linkonce_odr dso_local noundef i64 @_ZNK3net8QuicTime5Delta14ToMicrosecondsEv(ptr noundef nonnull align 8 dereferenceable(16) %this) #1 comdat align 2 {
entry:
  %this.addr = alloca ptr, align 8
  store ptr %this, ptr %this.addr, align 8
  %this1 = load ptr, ptr %this.addr, align 8
  %time_offset_ = getelementptr inbounds %"class.net::QuicTime::Delta", ptr %this1, i32 0, i32 1
  %0 = load i64, ptr %time_offset_, align 8
  ret i64 %0
}

; Function Attrs: mustprogress uwtable
define linkonce_odr dso_local { i64, i64 } @_ZN3netmiENS_8QuicTimeES0_(i64 %lhs.coerce, i64 %rhs.coerce) #0 comdat {
entry:
  %retval = alloca %"class.net::QuicTime::Delta", align 8
  %lhs = alloca %"class.net::QuicTime", align 8
  %rhs = alloca %"class.net::QuicTime", align 8
  %coerce.dive = getelementptr inbounds %"class.net::QuicTime", ptr %lhs, i32 0, i32 0
  store i64 %lhs.coerce, ptr %coerce.dive, align 8
  %coerce.dive1 = getelementptr inbounds %"class.net::QuicTime", ptr %rhs, i32 0, i32 0
  store i64 %rhs.coerce, ptr %coerce.dive1, align 8
  %time_ = getelementptr inbounds %"class.net::QuicTime", ptr %lhs, i32 0, i32 0
  %0 = load i64, ptr %time_, align 8
  %time_2 = getelementptr inbounds %"class.net::QuicTime", ptr %rhs, i32 0, i32 0
  %1 = load i64, ptr %time_2, align 8
  %sub = sub nsw i64 %0, %1
  call void @_ZN3net8QuicTime5DeltaC2El(ptr noundef nonnull align 8 dereferenceable(16) %retval, i64 noundef %sub)
  %2 = load { i64, i64 }, ptr %retval, align 8
  ret { i64, i64 } %2
}

; Function Attrs: mustprogress uwtable
define dso_local void @_ZN3net9QuicAlarm6CancelEv(ptr noundef nonnull align 8 dereferenceable(24) %this) #0 align 2 {
entry:
  %this.addr = alloca ptr, align 8
  %ref.tmp = alloca %"class.net::QuicTime", align 8
  store ptr %this, ptr %this.addr, align 8
  %this1 = load ptr, ptr %this.addr, align 8
  %call = call noundef zeroext i1 @_ZNK3net9QuicAlarm5IsSetEv(ptr noundef nonnull align 8 dereferenceable(24) %this1)
  br i1 %call, label %if.end, label %if.then

if.then:                                          ; preds = %entry
  br label %return

if.end:                                           ; preds = %entry
  %call2 = call i64 @_ZN3net8QuicTime4ZeroEv()
  %coerce.dive = getelementptr inbounds %"class.net::QuicTime", ptr %ref.tmp, i32 0, i32 0
  store i64 %call2, ptr %coerce.dive, align 8
  %deadline_ = getelementptr inbounds %"class.net::QuicAlarm", ptr %this1, i32 0, i32 2
  call void @llvm.memcpy.p0.p0.i64(ptr align 8 %deadline_, ptr align 8 %ref.tmp, i64 8, i1 false)
  %vtable = load ptr, ptr %this1, align 8
  %vfn = getelementptr inbounds ptr, ptr %vtable, i64 3
  %0 = load ptr, ptr %vfn, align 8
  call void %0(ptr noundef nonnull align 8 dereferenceable(24) %this1)
  br label %return

return:                                           ; preds = %if.end, %if.then
  ret void
}

; Function Attrs: mustprogress nounwind uwtable
define linkonce_odr dso_local noundef zeroext i1 @_ZNK3net8QuicTime13IsInitializedEv(ptr noundef nonnull align 8 dereferenceable(8) %this) #1 comdat align 2 {
entry:
  %this.addr = alloca ptr, align 8
  store ptr %this, ptr %this.addr, align 8
  %this1 = load ptr, ptr %this.addr, align 8
  %time_ = getelementptr inbounds %"class.net::QuicTime", ptr %this1, i32 0, i32 0
  %0 = load i64, ptr %time_, align 8
  %cmp = icmp ne i64 0, %0
  ret i1 %cmp
}

; Function Attrs: mustprogress uwtable
define dso_local void @_ZN3net9QuicAlarm6UpdateENS_8QuicTimeENS1_5DeltaE(ptr noundef nonnull align 8 dereferenceable(24) %this, i64 %new_deadline.coerce, i64 %granularity.coerce0, i64 %granularity.coerce1) #0 align 2 {
entry:
  %new_deadline = alloca %"class.net::QuicTime", align 8
  %granularity = alloca %"class.net::QuicTime::Delta", align 8
  %this.addr = alloca ptr, align 8
  %ref.tmp = alloca %"class.net::QuicTime::Delta", align 8
  %agg.tmp = alloca %"class.net::QuicTime", align 8
  %agg.tmp2 = alloca %"class.net::QuicTime", align 8
  %was_set = alloca i8, align 1
  %coerce.dive = getelementptr inbounds %"class.net::QuicTime", ptr %new_deadline, i32 0, i32 0
  store i64 %new_deadline.coerce, ptr %coerce.dive, align 8
  %0 = getelementptr inbounds { i64, i64 }, ptr %granularity, i32 0, i32 0
  store i64 %granularity.coerce0, ptr %0, align 8
  %1 = getelementptr inbounds { i64, i64 }, ptr %granularity, i32 0, i32 1
  store i64 %granularity.coerce1, ptr %1, align 8
  store ptr %this, ptr %this.addr, align 8
  %this1 = load ptr, ptr %this.addr, align 8
  %call = call noundef zeroext i1 @_ZNK3net8QuicTime13IsInitializedEv(ptr noundef nonnull align 8 dereferenceable(8) %new_deadline)
  br i1 %call, label %if.end, label %if.then

if.then:                                          ; preds = %entry
  call void @_ZN3net9QuicAlarm6CancelEv(ptr noundef nonnull align 8 dereferenceable(24) %this1)
  br label %if.end16

if.end:                                           ; preds = %entry
  call void @llvm.memcpy.p0.p0.i64(ptr align 8 %agg.tmp, ptr align 8 %new_deadline, i64 8, i1 false)
  %deadline_ = getelementptr inbounds %"class.net::QuicAlarm", ptr %this1, i32 0, i32 2
  call void @llvm.memcpy.p0.p0.i64(ptr align 8 %agg.tmp2, ptr align 8 %deadline_, i64 8, i1 false)
  %coerce.dive3 = getelementptr inbounds %"class.net::QuicTime", ptr %agg.tmp, i32 0, i32 0
  %2 = load i64, ptr %coerce.dive3, align 8
  %coerce.dive4 = getelementptr inbounds %"class.net::QuicTime", ptr %agg.tmp2, i32 0, i32 0
  %3 = load i64, ptr %coerce.dive4, align 8
  %call5 = call { i64, i64 } @_ZN3netmiENS_8QuicTimeES0_(i64 %2, i64 %3)
  %4 = getelementptr inbounds { i64, i64 }, ptr %ref.tmp, i32 0, i32 0
  %5 = extractvalue { i64, i64 } %call5, 0
  store i64 %5, ptr %4, align 8
  %6 = getelementptr inbounds { i64, i64 }, ptr %ref.tmp, i32 0, i32 1
  %7 = extractvalue { i64, i64 } %call5, 1
  store i64 %7, ptr %6, align 8
  %call6 = call noundef i64 @_ZNK3net8QuicTime5Delta14ToMicrosecondsEv(ptr noundef nonnull align 8 dereferenceable(16) %ref.tmp)
  %call7 = call noundef i64 @_ZSt3absl(i64 noundef %call6)
  %call8 = call noundef i64 @_ZNK3net8QuicTime5Delta14ToMicrosecondsEv(ptr noundef nonnull align 8 dereferenceable(16) %granularity)
  %cmp = icmp slt i64 %call7, %call8
  br i1 %cmp, label %if.then9, label %if.end10

if.then9:                                         ; preds = %if.end
  br label %if.end16

if.end10:                                         ; preds = %if.end
  %call11 = call noundef zeroext i1 @_ZNK3net9QuicAlarm5IsSetEv(ptr noundef nonnull align 8 dereferenceable(24) %this1)
  %frombool = zext i1 %call11 to i8
  store i8 %frombool, ptr %was_set, align 1
  %deadline_12 = getelementptr inbounds %"class.net::QuicAlarm", ptr %this1, i32 0, i32 2
  call void @llvm.memcpy.p0.p0.i64(ptr align 8 %deadline_12, ptr align 8 %new_deadline, i64 8, i1 false)
  %8 = load i8, ptr %was_set, align 1
  %tobool = trunc i8 %8 to i1
  br i1 %tobool, label %if.then13, label %if.else

if.then13:                                        ; preds = %if.end10
  %vtable = load ptr, ptr %this1, align 8
  %vfn = getelementptr inbounds ptr, ptr %vtable, i64 4
  %9 = load ptr, ptr %vfn, align 8
  call void %9(ptr noundef nonnull align 8 dereferenceable(24) %this1)
  br label %if.end16

if.else:                                          ; preds = %if.end10
  %vtable14 = load ptr, ptr %this1, align 8
  %vfn15 = getelementptr inbounds ptr, ptr %vtable14, i64 2
  %10 = load ptr, ptr %vfn15, align 8
  call void %10(ptr noundef nonnull align 8 dereferenceable(24) %this1)
  br label %if.end16

if.end16:                                         ; preds = %if.else, %if.then13, %if.then9, %if.then
  ret void
}