; Function Attrs: mustprogress uwtable
define dso_local void @_ZN3net9QuicAlarm6UpdateENS_8QuicTimeENS1_5DeltaE(ptr noundef nonnull align 8 dereferenceable(24) %this, i64 %new_deadline.coerce, i64 %granularity.coerce0, i64 %granularity.coerce1) local_unnamed_addr #4 align 2 {
entry:
  %cmp.i.not = icmp eq i64 %new_deadline.coerce, 0
  %deadline_.i.i = getelementptr inbounds i8, ptr %this, i64 16
  %0 = load i64, ptr %deadline_.i.i, align 8
  br i1 %cmp.i.not, label %if.then, label %if.end

if.then:                                          ; preds = %entry
  %cmp.i.i.not.i = icmp eq i64 %0, 0
  br i1 %cmp.i.i.not.i, label %if.end16, label %if.end.i

if.end.i:                                         ; preds = %if.then
  store i64 0, ptr %deadline_.i.i, align 8
  %vtable.i = load ptr, ptr %this, align 8
  %vfn.i = getelementptr inbounds i8, ptr %vtable.i, i64 24
  br label %if.end16.sink.split

if.end:                                           ; preds = %entry
  %sub.i = sub nsw i64 %new_deadline.coerce, %0
  %1 = tail call noundef i64 @llvm.abs.i64(i64 %sub.i, i1 true)
  %cmp = icmp slt i64 %1, %granularity.coerce1
  br i1 %cmp, label %if.end16, label %if.end10

if.end10:                                         ; preds = %if.end
  %cmp.i.i.not = icmp eq i64 %0, 0
  store i64 %new_deadline.coerce, ptr %deadline_.i.i, align 8
  %vtable14 = load ptr, ptr %this, align 8
  br i1 %cmp.i.i.not, label %if.else, label %if.then13

if.then13:                                        ; preds = %if.end10
  %vfn = getelementptr inbounds i8, ptr %vtable14, i64 32
  br label %if.end16.sink.split

if.else:                                          ; preds = %if.end10
  %vfn15 = getelementptr inbounds i8, ptr %vtable14, i64 16
  br label %if.end16.sink.split

if.end16.sink.split:                              ; preds = %if.then13, %if.else, %if.end.i
  %vfn.i.sink = phi ptr [ %vfn.i, %if.end.i ], [ %vfn15, %if.else ], [ %vfn, %if.then13 ]
  %2 = load ptr, ptr %vfn.i.sink, align 8
  tail call void %2(ptr noundef nonnull align 8 dereferenceable(24) %this)
  br label %if.end16

if.end16:                                         ; preds = %if.end16.sink.split, %if.then, %if.end
  ret void
}